target datalayout = "e-m:e-p270:32:32-p271:32:32-p272:64:64-i64:64-i128:128-f80:128-n8:16:32:64-S128"
target triple = "x86_64-pc-linux-gnu"

%struct.CatalogId = type { i32, i32 }
%struct._dumpableObject = type { i32, %struct.CatalogId, i32, ptr, ptr, i32, i32, i32, i8, i8, ptr, i32, i32 }
%struct.PQExpBufferData = type { ptr, i64, i64 }
%struct._tableInfo = type { %struct._dumpableObject, %struct._dumpableAcl, ptr, i8, i8, i8, i8, ptr, ptr, ptr, ptr, i8, i8, i8, i8, i8, i8, i8, i32, i32, i32, i32, i32, i32, i32, i32, i32, i32, i32, i8, i32, i32, i8, i8, i8, i8, i8, i32, ptr, i32, ptr, ptr, ptr, ptr, ptr, ptr, ptr, ptr, ptr, ptr, ptr, ptr, ptr, ptr, ptr, ptr, ptr, ptr, ptr, ptr, ptr, i8, ptr, i32, ptr, ptr, i32, ptr }
%struct._dumpableAcl = type { ptr, ptr, i8, ptr }
%struct._typeInfo = type { %struct._dumpableObject, %struct._dumpableAcl, ptr, ptr, i32, i32, i32, i8, i8, i8, i8, i8, ptr, i32, ptr }
%struct.SecLabelItem = type { ptr, ptr, i32, i32, i32 }

@.str.765 = private unnamed_addr constant [9 x i8] c"classoid\00", align 1
@.str.766 = private unnamed_addr constant [7 x i8] c"objoid\00", align 1
@.str.767 = private unnamed_addr constant [9 x i8] c"objsubid\00", align 1
@nseclabels = internal global i32 0, align 4
@seclabels = internal global ptr null, align 8
@.str.1607 = private unnamed_addr constant [115 x i8] c"SELECT label, provider, classoid, objoid, objsubid FROM pg_catalog.pg_seclabel ORDER BY classoid, objoid, objsubid\00", align 1
@.str.1608 = private unnamed_addr constant [6 x i8] c"label\00", align 1
@.str.1609 = private unnamed_addr constant [9 x i8] c"provider\00", align 1

; Function Attrs: inlinehint nounwind willreturn memory(read) uwtable
define available_externally i32 @atoi(ptr noundef nonnull %0) #8 {
  %2 = alloca ptr, align 8
  store ptr %0, ptr %2, align 8
  %3 = load ptr, ptr %2, align 8
  %4 = call i64 @strtol(ptr noundef %3, ptr noundef null, i32 noundef 10) #10
  %5 = trunc i64 %4 to i32
  ret i32 %5
}

; Function Attrs: nounwind uwtable
define internal void @collectSecLabels(ptr noundef %0) #0 {
  %2 = alloca ptr, align 8
  %3 = alloca ptr, align 8
  %4 = alloca ptr, align 8
  %5 = alloca i32, align 4
  %6 = alloca i32, align 4
  %7 = alloca i32, align 4
  %8 = alloca i32, align 4
  %9 = alloca i32, align 4
  %10 = alloca i32, align 4
  %11 = alloca i32, align 4
  %12 = alloca ptr, align 8
  %13 = alloca %struct.CatalogId, align 4
  %14 = alloca i32, align 4
  %15 = alloca i32, align 4
  %16 = alloca ptr, align 8
  store ptr %0, ptr %2, align 8
  call void @llvm.lifetime.start.p0(i64 8, ptr %3) #10
  call void @llvm.lifetime.start.p0(i64 8, ptr %4) #10
  call void @llvm.lifetime.start.p0(i64 4, ptr %5) #10
  call void @llvm.lifetime.start.p0(i64 4, ptr %6) #10
  call void @llvm.lifetime.start.p0(i64 4, ptr %7) #10
  call void @llvm.lifetime.start.p0(i64 4, ptr %8) #10
  call void @llvm.lifetime.start.p0(i64 4, ptr %9) #10
  call void @llvm.lifetime.start.p0(i64 4, ptr %10) #10
  call void @llvm.lifetime.start.p0(i64 4, ptr %11) #10
  call void @llvm.lifetime.start.p0(i64 8, ptr %12) #10
  %17 = call ptr @createPQExpBuffer()
  store ptr %17, ptr %4, align 8
  %18 = load ptr, ptr %4, align 8
  call void @appendPQExpBufferStr(ptr noundef %18, ptr noundef @.str.1607)
  %19 = load ptr, ptr %2, align 8
  %20 = load ptr, ptr %4, align 8
  %21 = getelementptr inbounds nuw %struct.PQExpBufferData, ptr %20, i32 0, i32 0
  %22 = load ptr, ptr %21, align 8
  %23 = call ptr @ExecuteSqlQuery(ptr noundef %19, ptr noundef %22, i32 noundef 2)
  store ptr %23, ptr %3, align 8
  %24 = load ptr, ptr %3, align 8
  %25 = call i32 @PQfnumber(ptr noundef %24, ptr noundef @.str.1608)
  store i32 %25, ptr %5, align 4
  %26 = load ptr, ptr %3, align 8
  %27 = call i32 @PQfnumber(ptr noundef %26, ptr noundef @.str.1609)
  store i32 %27, ptr %6, align 4
  %28 = load ptr, ptr %3, align 8
  %29 = call i32 @PQfnumber(ptr noundef %28, ptr noundef @.str.765)
  store i32 %29, ptr %7, align 4
  %30 = load ptr, ptr %3, align 8
  %31 = call i32 @PQfnumber(ptr noundef %30, ptr noundef @.str.766)
  store i32 %31, ptr %8, align 4
  %32 = load ptr, ptr %3, align 8
  %33 = call i32 @PQfnumber(ptr noundef %32, ptr noundef @.str.767)
  store i32 %33, ptr %9, align 4
  %34 = load ptr, ptr %3, align 8
  %35 = call i32 @PQntuples(ptr noundef %34)
  store i32 %35, ptr %10, align 4
  %36 = load i32, ptr %10, align 4
  %37 = sext i32 %36 to i64
  %38 = mul i64 %37, 32
  %39 = call ptr @pg_malloc(i64 noundef %38)
  store ptr %39, ptr @seclabels, align 8
  store i32 0, ptr @nseclabels, align 4
  store ptr null, ptr %12, align 8
  store i32 0, ptr %11, align 4
  br label %40

40:                                               ; preds = %168, %1
  %41 = load i32, ptr %11, align 4
  %42 = load i32, ptr %10, align 4
  %43 = icmp slt i32 %41, %42
  br i1 %43, label %44, label %171

44:                                               ; preds = %40
  call void @llvm.lifetime.start.p0(i64 8, ptr %13) #10
  call void @llvm.lifetime.start.p0(i64 4, ptr %14) #10
  %45 = load ptr, ptr %3, align 8
  %46 = load i32, ptr %11, align 4
  %47 = load i32, ptr %7, align 4
  %48 = call ptr @PQgetvalue(ptr noundef %45, i32 noundef %46, i32 noundef %47)
  %49 = call i64 @strtoul(ptr noundef %48, ptr noundef null, i32 noundef 10) #10
  %50 = trunc i64 %49 to i32
  %51 = getelementptr inbounds nuw %struct.CatalogId, ptr %13, i32 0, i32 0
  store i32 %50, ptr %51, align 4
  %52 = load ptr, ptr %3, align 8
  %53 = load i32, ptr %11, align 4
  %54 = load i32, ptr %8, align 4
  %55 = call ptr @PQgetvalue(ptr noundef %52, i32 noundef %53, i32 noundef %54)
  %56 = call i64 @strtoul(ptr noundef %55, ptr noundef null, i32 noundef 10) #10
  %57 = trunc i64 %56 to i32
  %58 = getelementptr inbounds nuw %struct.CatalogId, ptr %13, i32 0, i32 1
  store i32 %57, ptr %58, align 4
  %59 = load ptr, ptr %3, align 8
  %60 = load i32, ptr %11, align 4
  %61 = load i32, ptr %9, align 4
  %62 = call ptr @PQgetvalue(ptr noundef %59, i32 noundef %60, i32 noundef %61)
  %63 = call i32 @atoi(ptr noundef %62) #11
  store i32 %63, ptr %14, align 4
  %64 = load ptr, ptr %12, align 8
  %65 = icmp eq ptr %64, null
  br i1 %65, label %82, label %66

66:                                               ; preds = %44
  %67 = load ptr, ptr %12, align 8
  %68 = getelementptr inbounds nuw %struct._dumpableObject, ptr %67, i32 0, i32 1
  %69 = getelementptr inbounds nuw %struct.CatalogId, ptr %68, i32 0, i32 0
  %70 = load i32, ptr %69, align 4
  %71 = getelementptr inbounds nuw %struct.CatalogId, ptr %13, i32 0, i32 0
  %72 = load i32, ptr %71, align 4
  %73 = icmp ne i32 %70, %72
  br i1 %73, label %82, label %74

74:                                               ; preds = %66
  %75 = load ptr, ptr %12, align 8
  %76 = getelementptr inbounds nuw %struct._dumpableObject, ptr %75, i32 0, i32 1
  %77 = getelementptr inbounds nuw %struct.CatalogId, ptr %76, i32 0, i32 1
  %78 = load i32, ptr %77, align 4
  %79 = getelementptr inbounds nuw %struct.CatalogId, ptr %13, i32 0, i32 1
  %80 = load i32, ptr %79, align 4
  %81 = icmp ne i32 %78, %80
  br i1 %81, label %82, label %85

82:                                               ; preds = %74, %66, %44
  %83 = load i64, ptr %13, align 4
  %84 = call ptr @findObjectByCatalogId(i64 %83)
  store ptr %84, ptr %12, align 8
  br label %85

85:                                               ; preds = %82, %74
  %86 = load ptr, ptr %12, align 8
  %87 = icmp eq ptr %86, null
  br i1 %87, label %88, label %89

88:                                               ; preds = %85
  store i32 4, ptr %15, align 4
  br label %165

89:                                               ; preds = %85
  %90 = load i32, ptr %14, align 4
  %91 = icmp ne i32 %90, 0
  br i1 %91, label %92, label %117

92:                                               ; preds = %89
  %93 = load ptr, ptr %12, align 8
  %94 = getelementptr inbounds nuw %struct._dumpableObject, ptr %93, i32 0, i32 0
  %95 = load i32, ptr %94, align 8
  %96 = icmp eq i32 %95, 12
  br i1 %96, label %97, label %117

97:                                               ; preds = %92
  %98 = load ptr, ptr %12, align 8
  %99 = getelementptr inbounds nuw %struct._tableInfo, ptr %98, i32 0, i32 3
  %100 = load i8, ptr %99, align 8
  %101 = sext i8 %100 to i32
  %102 = icmp eq i32 %101, 99
  br i1 %102, label %103, label %117

103:                                              ; preds = %97
  call void @llvm.lifetime.start.p0(i64 8, ptr %16) #10
  %104 = load ptr, ptr %12, align 8
  %105 = getelementptr inbounds nuw %struct._tableInfo, ptr %104, i32 0, i32 24
  %106 = load i32, ptr %105, align 8
  %107 = call ptr @findTypeByOid(i32 noundef %106)
  store ptr %107, ptr %16, align 8
  %108 = load ptr, ptr %16, align 8
  %109 = icmp ne ptr %108, null
  br i1 %109, label %110, label %116

110:                                              ; preds = %103
  %111 = load ptr, ptr %16, align 8
  %112 = getelementptr inbounds nuw %struct._typeInfo, ptr %111, i32 0, i32 0
  %113 = getelementptr inbounds nuw %struct._dumpableObject, ptr %112, i32 0, i32 7
  %114 = load i32, ptr %113, align 8
  %115 = or i32 %114, 8
  store i32 %115, ptr %113, align 8
  br label %116

116:                                              ; preds = %110, %103
  call void @llvm.lifetime.end.p0(i64 8, ptr %16) #10
  br label %122

117:                                              ; preds = %97, %92, %89
  %118 = load ptr, ptr %12, align 8
  %119 = getelementptr inbounds nuw %struct._dumpableObject, ptr %118, i32 0, i32 7
  %120 = load i32, ptr %119, align 8
  %121 = or i32 %120, 8
  store i32 %121, ptr %119, align 8
  br label %122

122:                                              ; preds = %117, %116
  %123 = load ptr, ptr %3, align 8
  %124 = load i32, ptr %11, align 4
  %125 = load i32, ptr %5, align 4
  %126 = call ptr @PQgetvalue(ptr noundef %123, i32 noundef %124, i32 noundef %125)
  %127 = call ptr @pg_strdup(ptr noundef %126)
  %128 = load ptr, ptr @seclabels, align 8
  %129 = load i32, ptr @nseclabels, align 4
  %130 = sext i32 %129 to i64
  %131 = getelementptr inbounds %struct.SecLabelItem, ptr %128, i64 %130
  %132 = getelementptr inbounds nuw %struct.SecLabelItem, ptr %131, i32 0, i32 1
  store ptr %127, ptr %132, align 8
  %133 = load ptr, ptr %3, align 8
  %134 = load i32, ptr %11, align 4
  %135 = load i32, ptr %6, align 4
  %136 = call ptr @PQgetvalue(ptr noundef %133, i32 noundef %134, i32 noundef %135)
  %137 = call ptr @pg_strdup(ptr noundef %136)
  %138 = load ptr, ptr @seclabels, align 8
  %139 = load i32, ptr @nseclabels, align 4
  %140 = sext i32 %139 to i64
  %141 = getelementptr inbounds %struct.SecLabelItem, ptr %138, i64 %140
  %142 = getelementptr inbounds nuw %struct.SecLabelItem, ptr %141, i32 0, i32 0
  store ptr %137, ptr %142, align 8
  %143 = getelementptr inbounds nuw %struct.CatalogId, ptr %13, i32 0, i32 0
  %144 = load i32, ptr %143, align 4
  %145 = load ptr, ptr @seclabels, align 8
  %146 = load i32, ptr @nseclabels, align 4
  %147 = sext i32 %146 to i64
  %148 = getelementptr inbounds %struct.SecLabelItem, ptr %145, i64 %147
  %149 = getelementptr inbounds nuw %struct.SecLabelItem, ptr %148, i32 0, i32 2
  store i32 %144, ptr %149, align 8
  %150 = getelementptr inbounds nuw %struct.CatalogId, ptr %13, i32 0, i32 1
  %151 = load i32, ptr %150, align 4
  %152 = load ptr, ptr @seclabels, align 8
  %153 = load i32, ptr @nseclabels, align 4
  %154 = sext i32 %153 to i64
  %155 = getelementptr inbounds %struct.SecLabelItem, ptr %152, i64 %154
  %156 = getelementptr inbounds nuw %struct.SecLabelItem, ptr %155, i32 0, i32 3
  store i32 %151, ptr %156, align 4
  %157 = load i32, ptr %14, align 4
  %158 = load ptr, ptr @seclabels, align 8
  %159 = load i32, ptr @nseclabels, align 4
  %160 = sext i32 %159 to i64
  %161 = getelementptr inbounds %struct.SecLabelItem, ptr %158, i64 %160
  %162 = getelementptr inbounds nuw %struct.SecLabelItem, ptr %161, i32 0, i32 4
  store i32 %157, ptr %162, align 8
  %163 = load i32, ptr @nseclabels, align 4
  %164 = add i32 %163, 1
  store i32 %164, ptr @nseclabels, align 4
  store i32 0, ptr %15, align 4
  br label %165

165:                                              ; preds = %122, %88
  call void @llvm.lifetime.end.p0(i64 4, ptr %14) #10
  call void @llvm.lifetime.end.p0(i64 8, ptr %13) #10
  %166 = load i32, ptr %15, align 4
  switch i32 %166, label %174 [
    i32 0, label %167
    i32 4, label %168
  ]

167:                                              ; preds = %165
  br label %168

168:                                              ; preds = %167, %165
  %169 = load i32, ptr %11, align 4
  %170 = add i32 %169, 1
  store i32 %170, ptr %11, align 4
  br label %40, !llvm.loop !29

171:                                              ; preds = %40
  %172 = load ptr, ptr %3, align 8
  call void @PQclear(ptr noundef %172)
  %173 = load ptr, ptr %4, align 8
  call void @destroyPQExpBuffer(ptr noundef %173)
  call void @llvm.lifetime.end.p0(i64 8, ptr %12) #10
  call void @llvm.lifetime.end.p0(i64 4, ptr %11) #10
  call void @llvm.lifetime.end.p0(i64 4, ptr %10) #10
  call void @llvm.lifetime.end.p0(i64 4, ptr %9) #10
  call void @llvm.lifetime.end.p0(i64 4, ptr %8) #10
  call void @llvm.lifetime.end.p0(i64 4, ptr %7) #10
  call void @llvm.lifetime.end.p0(i64 4, ptr %6) #10
  call void @llvm.lifetime.end.p0(i64 4, ptr %5) #10
  call void @llvm.lifetime.end.p0(i64 8, ptr %4) #10
  call void @llvm.lifetime.end.p0(i64 8, ptr %3) #10
  ret void

174:                                              ; preds = %165
  unreachable
}