; Function Attrs: nounwind uwtable
define internal fastcc void @collectSecLabels(ptr noundef %0) unnamed_addr #5 {
  %2 = tail call ptr @createPQExpBuffer() #14
  tail call void @appendPQExpBufferStr(ptr noundef %2, ptr noundef nonnull @.str.1607) #14
  %3 = load ptr, ptr %2, align 8
  %4 = tail call ptr @ExecuteSqlQuery(ptr noundef %0, ptr noundef %3, i32 noundef 2) #14
  %5 = tail call i32 @PQfnumber(ptr noundef %4, ptr noundef nonnull @.str.1608) #14
  %6 = tail call i32 @PQfnumber(ptr noundef %4, ptr noundef nonnull @.str.1609) #14
  %7 = tail call i32 @PQfnumber(ptr noundef %4, ptr noundef nonnull @.str.765) #14
  %8 = tail call i32 @PQfnumber(ptr noundef %4, ptr noundef nonnull @.str.766) #14
  %9 = tail call i32 @PQfnumber(ptr noundef %4, ptr noundef nonnull @.str.767) #14
  %10 = tail call i32 @PQntuples(ptr noundef %4) #14
  %11 = sext i32 %10 to i64
  %12 = shl nsw i64 %11, 5
  %13 = tail call ptr @pg_malloc(i64 noundef %12) #14
  store ptr %13, ptr @seclabels, align 8
  store i32 0, ptr @nseclabels, align 4
  %14 = icmp sgt i32 %10, 0
  br i1 %14, label %.lr.ph, label %._crit_edge

.lr.ph:                                           ; preds = %1, %65
  %.053 = phi i32 [ %66, %65 ], [ 0, %1 ]
  %.04452 = phi ptr [ %.151, %65 ], [ null, %1 ]
  %15 = tail call ptr @PQgetvalue(ptr noundef %4, i32 noundef %.053, i32 noundef %7) #14
  %16 = tail call i64 @strtoul(ptr noundef captures(none) %15, ptr noundef null, i32 noundef 10) #14
  %17 = trunc i64 %16 to i32
  %18 = tail call ptr @PQgetvalue(ptr noundef %4, i32 noundef %.053, i32 noundef %8) #14
  %19 = tail call i64 @strtoul(ptr noundef captures(none) %18, ptr noundef null, i32 noundef 10) #14
  %20 = trunc i64 %19 to i32
  %21 = tail call ptr @PQgetvalue(ptr noundef %4, i32 noundef %.053, i32 noundef %9) #14
  %22 = tail call i64 @strtol(ptr noundef nonnull captures(none) %21, ptr noundef null, i32 noundef 10) #14
  %23 = trunc i64 %22 to i32
  %24 = icmp eq ptr %.04452, null
  br i1 %24, label %31, label %25

25:                                               ; preds = %.lr.ph
  %26 = getelementptr inbounds nuw i8, ptr %.04452, i64 4
  %27 = load i32, ptr %26, align 4
  %.not = icmp eq i32 %27, %17
  br i1 %.not, label %28, label %31

28:                                               ; preds = %25
  %29 = getelementptr inbounds nuw i8, ptr %.04452, i64 8
  %30 = load i32, ptr %29, align 4
  %.not46 = icmp eq i32 %30, %20
  br i1 %.not46, label %.thread, label %31

31:                                               ; preds = %.lr.ph, %25, %28
  %.sroa.6.0.insert.ext = shl i64 %19, 32
  %.sroa.0.0.insert.ext = and i64 %16, 4294967295
  %.sroa.0.0.insert.insert = or disjoint i64 %.sroa.6.0.insert.ext, %.sroa.0.0.insert.ext
  %32 = tail call ptr @findObjectByCatalogId(i64 %.sroa.0.0.insert.insert) #14
  %33 = icmp eq ptr %32, null
  br i1 %33, label %65, label %.thread

.thread:                                          ; preds = %28, %31
  %.150 = phi ptr [ %32, %31 ], [ %.04452, %28 ]
  %.not47 = icmp eq i32 %23, 0
  br i1 %.not47, label %.sink.split, label %34

34:                                               ; preds = %.thread
  %35 = load i32, ptr %.150, align 8
  %36 = icmp eq i32 %35, 12
  br i1 %36, label %37, label %.sink.split

37:                                               ; preds = %34
  %38 = getelementptr inbounds nuw i8, ptr %.150, i64 104
  %39 = load i8, ptr %38, align 8
  %40 = icmp eq i8 %39, 99
  br i1 %40, label %41, label %.sink.split

41:                                               ; preds = %37
  %42 = getelementptr inbounds nuw i8, ptr %.150, i64 176
  %43 = load i32, ptr %42, align 8
  %44 = tail call ptr @findTypeByOid(i32 noundef %43) #14
  %.not48 = icmp eq ptr %44, null
  br i1 %.not48, label %48, label %.sink.split

.sink.split:                                      ; preds = %.thread, %34, %37, %41
  %.sink56 = phi ptr [ %44, %41 ], [ %.150, %37 ], [ %.150, %34 ], [ %.150, %.thread ]
  %45 = getelementptr inbounds nuw i8, ptr %.sink56, i64 40
  %46 = load i32, ptr %45, align 8
  %47 = or i32 %46, 8
  store i32 %47, ptr %45, align 8
  br label %48

48:                                               ; preds = %.sink.split, %41
  %49 = tail call ptr @PQgetvalue(ptr noundef %4, i32 noundef %.053, i32 noundef %5) #14
  %50 = tail call ptr @pg_strdup(ptr noundef %49) #14
  %51 = load ptr, ptr @seclabels, align 8
  %52 = load i32, ptr @nseclabels, align 4
  %53 = sext i32 %52 to i64
  %54 = getelementptr inbounds %struct.SecLabelItem, ptr %51, i64 %53, i32 1
  store ptr %50, ptr %54, align 8
  %55 = tail call ptr @PQgetvalue(ptr noundef %4, i32 noundef %.053, i32 noundef %6) #14
  %56 = tail call ptr @pg_strdup(ptr noundef %55) #14
  %57 = load ptr, ptr @seclabels, align 8
  %58 = load i32, ptr @nseclabels, align 4
  %59 = sext i32 %58 to i64
  %60 = getelementptr inbounds %struct.SecLabelItem, ptr %57, i64 %59
  store ptr %56, ptr %60, align 8
  %61 = getelementptr inbounds %struct.SecLabelItem, ptr %57, i64 %59, i32 2
  store i32 %17, ptr %61, align 8
  %62 = getelementptr inbounds %struct.SecLabelItem, ptr %57, i64 %59, i32 3
  store i32 %20, ptr %62, align 4
  %63 = getelementptr inbounds %struct.SecLabelItem, ptr %57, i64 %59, i32 4
  store i32 %23, ptr %63, align 8
  %64 = add i32 %58, 1
  store i32 %64, ptr @nseclabels, align 4
  br label %65

65:                                               ; preds = %31, %48
  %.151 = phi ptr [ null, %31 ], [ %.150, %48 ]
  %66 = add nuw nsw i32 %.053, 1
  %exitcond.not = icmp eq i32 %66, %10
  br i1 %exitcond.not, label %._crit_edge, label %.lr.ph, !llvm.loop !49

._crit_edge:                                      ; preds = %65, %1
  tail call void @PQclear(ptr noundef %4) #14
  tail call void @destroyPQExpBuffer(ptr noundef nonnull %2) #14
  ret void
}